; Function Attrs: nounwind uwtable
define ptr @l_Lake_LeanLib_staticLibFile(ptr noundef %0) local_unnamed_addr #0 {
  %2 = getelementptr inbounds nuw i8, ptr %0, i64 8
  %3 = load ptr, ptr %2, align 8, !tbaa !4
  %4 = ptrtoint ptr %3 to i64
  %5 = and i64 %4, 1
  %.not = icmp eq i64 %5, 0
  br i1 %.not, label %6, label %lean_inc.exit37

6:                                                ; preds = %1
  %.val.i = load i32, ptr %3, align 4, !tbaa !8
  %7 = icmp sgt i32 %.val.i, 0
  br i1 %7, label %8, label %10, !prof !11

8:                                                ; preds = %6
  %9 = add nuw i32 %.val.i, 1
  store i32 %9, ptr %3, align 4, !tbaa !8
  br label %lean_inc.exit37

10:                                               ; preds = %6
  %.not.i59 = icmp eq i32 %.val.i, 0
  br i1 %.not.i59, label %lean_inc.exit37, label %11

11:                                               ; preds = %10
  tail call void @lean_inc_ref_cold(ptr noundef nonnull %3) #4
  br label %lean_inc.exit37

lean_inc.exit37:                                  ; preds = %11, %10, %8, %1
  %12 = getelementptr inbounds nuw i8, ptr %3, i64 16
  %13 = load ptr, ptr %12, align 8, !tbaa !4
  %14 = ptrtoint ptr %13 to i64
  %15 = and i64 %14, 1
  %.not78 = icmp eq i64 %15, 0
  br i1 %.not78, label %16, label %lean_inc.exit36

16:                                               ; preds = %lean_inc.exit37
  %.val.i60 = load i32, ptr %13, align 4, !tbaa !8
  %17 = icmp sgt i32 %.val.i60, 0
  br i1 %17, label %18, label %20, !prof !11

18:                                               ; preds = %16
  %19 = add nuw i32 %.val.i60, 1
  store i32 %19, ptr %13, align 4, !tbaa !8
  br label %lean_inc.exit36

20:                                               ; preds = %16
  %.not.i61 = icmp eq i32 %.val.i60, 0
  br i1 %.not.i61, label %lean_inc.exit36, label %21

21:                                               ; preds = %20
  tail call void @lean_inc_ref_cold(ptr noundef nonnull %13) #4
  br label %lean_inc.exit36

lean_inc.exit36:                                  ; preds = %21, %20, %18, %lean_inc.exit37
  %22 = getelementptr inbounds nuw i8, ptr %3, i64 32
  %23 = load ptr, ptr %22, align 8, !tbaa !4
  %24 = ptrtoint ptr %23 to i64
  %25 = and i64 %24, 1
  %.not79 = icmp eq i64 %25, 0
  br i1 %.not79, label %26, label %lean_inc.exit35

26:                                               ; preds = %lean_inc.exit36
  %.val.i63 = load i32, ptr %23, align 4, !tbaa !8
  %27 = icmp sgt i32 %.val.i63, 0
  br i1 %27, label %28, label %30, !prof !11

28:                                               ; preds = %26
  %29 = add nuw i32 %.val.i63, 1
  store i32 %29, ptr %23, align 4, !tbaa !8
  br label %lean_inc.exit35

30:                                               ; preds = %26
  %.not.i64 = icmp eq i32 %.val.i63, 0
  br i1 %.not.i64, label %lean_inc.exit35, label %31

31:                                               ; preds = %30
  tail call void @lean_inc_ref_cold(ptr noundef nonnull %23) #4
  br label %lean_inc.exit35

lean_inc.exit35:                                  ; preds = %31, %30, %28, %lean_inc.exit36
  br i1 %.not, label %32, label %lean_dec.exit44

32:                                               ; preds = %lean_inc.exit35
  %33 = load i32, ptr %3, align 4, !tbaa !8
  %34 = icmp sgt i32 %33, 1
  br i1 %34, label %35, label %37, !prof !11

35:                                               ; preds = %32
  %36 = add nsw i32 %33, -1
  store i32 %36, ptr %3, align 4, !tbaa !8
  br label %lean_dec.exit44

37:                                               ; preds = %32
  %.not.i = icmp eq i32 %33, 0
  br i1 %.not.i, label %lean_dec.exit44, label %38

38:                                               ; preds = %37
  tail call void @lean_dec_ref_cold(ptr noundef nonnull %3) #4
  br label %lean_dec.exit44

lean_dec.exit44:                                  ; preds = %38, %37, %35, %lean_inc.exit35
  %39 = getelementptr inbounds nuw i8, ptr %23, i64 56
  %40 = load ptr, ptr %39, align 8, !tbaa !4
  %41 = ptrtoint ptr %40 to i64
  %42 = and i64 %41, 1
  %.not80 = icmp eq i64 %42, 0
  br i1 %.not80, label %43, label %lean_inc.exit34

43:                                               ; preds = %lean_dec.exit44
  %.val.i66 = load i32, ptr %40, align 4, !tbaa !8
  %44 = icmp sgt i32 %.val.i66, 0
  br i1 %44, label %45, label %47, !prof !11

45:                                               ; preds = %43
  %46 = add nuw i32 %.val.i66, 1
  store i32 %46, ptr %40, align 4, !tbaa !8
  br label %lean_inc.exit34

47:                                               ; preds = %43
  %.not.i67 = icmp eq i32 %.val.i66, 0
  br i1 %.not.i67, label %lean_inc.exit34, label %48

48:                                               ; preds = %47
  tail call void @lean_inc_ref_cold(ptr noundef nonnull %40) #4
  br label %lean_inc.exit34

lean_inc.exit34:                                  ; preds = %48, %47, %45, %lean_dec.exit44
  %49 = tail call ptr @l_System_FilePath_normalize(ptr noundef %40) #4
  %50 = tail call ptr @l_Lake_joinRelative(ptr noundef %13, ptr noundef %49) #4
  %51 = ptrtoint ptr %49 to i64
  %52 = and i64 %51, 1
  %.not81 = icmp eq i64 %52, 0
  br i1 %.not81, label %53, label %lean_dec.exit43

53:                                               ; preds = %lean_inc.exit34
  %54 = load i32, ptr %49, align 4, !tbaa !8
  %55 = icmp sgt i32 %54, 1
  br i1 %55, label %56, label %58, !prof !11

56:                                               ; preds = %53
  %57 = add nsw i32 %54, -1
  store i32 %57, ptr %49, align 4, !tbaa !8
  br label %lean_dec.exit43

58:                                               ; preds = %53
  %.not.i45 = icmp eq i32 %54, 0
  br i1 %.not.i45, label %lean_dec.exit43, label %59

59:                                               ; preds = %58
  tail call void @lean_dec_ref_cold(ptr noundef nonnull %49) #4
  br label %lean_dec.exit43

lean_dec.exit43:                                  ; preds = %59, %58, %56, %lean_inc.exit34
  %60 = getelementptr inbounds nuw i8, ptr %23, i64 72
  %61 = load ptr, ptr %60, align 8, !tbaa !4
  %62 = ptrtoint ptr %61 to i64
  %63 = and i64 %62, 1
  %.not82 = icmp eq i64 %63, 0
  br i1 %.not82, label %64, label %lean_inc.exit33

64:                                               ; preds = %lean_dec.exit43
  %.val.i69 = load i32, ptr %61, align 4, !tbaa !8
  %65 = icmp sgt i32 %.val.i69, 0
  br i1 %65, label %66, label %68, !prof !11

66:                                               ; preds = %64
  %67 = add nuw i32 %.val.i69, 1
  store i32 %67, ptr %61, align 4, !tbaa !8
  br label %lean_inc.exit33

68:                                               ; preds = %64
  %.not.i70 = icmp eq i32 %.val.i69, 0
  br i1 %.not.i70, label %lean_inc.exit33, label %69

69:                                               ; preds = %68
  tail call void @lean_inc_ref_cold(ptr noundef nonnull %61) #4
  br label %lean_inc.exit33

lean_inc.exit33:                                  ; preds = %69, %68, %66, %lean_dec.exit43
  br i1 %.not79, label %70, label %lean_dec.exit42

70:                                               ; preds = %lean_inc.exit33
  %71 = load i32, ptr %23, align 4, !tbaa !8
  %72 = icmp sgt i32 %71, 1
  br i1 %72, label %73, label %75, !prof !11

73:                                               ; preds = %70
  %74 = add nsw i32 %71, -1
  store i32 %74, ptr %23, align 4, !tbaa !8
  br label %lean_dec.exit42

75:                                               ; preds = %70
  %.not.i47 = icmp eq i32 %71, 0
  br i1 %.not.i47, label %lean_dec.exit42, label %76

76:                                               ; preds = %75
  tail call void @lean_dec_ref_cold(ptr noundef nonnull %23) #4
  br label %lean_dec.exit42

lean_dec.exit42:                                  ; preds = %76, %75, %73, %lean_inc.exit33
  %77 = tail call ptr @l_System_FilePath_normalize(ptr noundef %61) #4
  %78 = tail call ptr @l_Lake_joinRelative(ptr noundef %50, ptr noundef %77) #4
  %79 = ptrtoint ptr %77 to i64
  %80 = and i64 %79, 1
  %.not83 = icmp eq i64 %80, 0
  br i1 %.not83, label %81, label %lean_dec.exit41

81:                                               ; preds = %lean_dec.exit42
  %82 = load i32, ptr %77, align 4, !tbaa !8
  %83 = icmp sgt i32 %82, 1
  br i1 %83, label %84, label %86, !prof !11

84:                                               ; preds = %81
  %85 = add nsw i32 %82, -1
  store i32 %85, ptr %77, align 4, !tbaa !8
  br label %lean_dec.exit41

86:                                               ; preds = %81
  %.not.i49 = icmp eq i32 %82, 0
  br i1 %.not.i49, label %lean_dec.exit41, label %87

87:                                               ; preds = %86
  tail call void @lean_dec_ref_cold(ptr noundef nonnull %77) #4
  br label %lean_dec.exit41

lean_dec.exit41:                                  ; preds = %87, %86, %84, %lean_dec.exit42
  %88 = getelementptr inbounds nuw i8, ptr %0, i64 24
  %89 = load ptr, ptr %88, align 8, !tbaa !4
  %90 = ptrtoint ptr %89 to i64
  %91 = and i64 %90, 1
  %.not84 = icmp eq i64 %91, 0
  br i1 %.not84, label %92, label %lean_inc.exit32

92:                                               ; preds = %lean_dec.exit41
  %.val.i72 = load i32, ptr %89, align 4, !tbaa !8
  %93 = icmp sgt i32 %.val.i72, 0
  br i1 %93, label %94, label %96, !prof !11

94:                                               ; preds = %92
  %95 = add nuw i32 %.val.i72, 1
  store i32 %95, ptr %89, align 4, !tbaa !8
  br label %lean_inc.exit32

96:                                               ; preds = %92
  %.not.i73 = icmp eq i32 %.val.i72, 0
  br i1 %.not.i73, label %lean_inc.exit32, label %97

97:                                               ; preds = %96
  tail call void @lean_inc_ref_cold(ptr noundef nonnull %89) #4
  br label %lean_inc.exit32

lean_inc.exit32:                                  ; preds = %97, %96, %94, %lean_dec.exit41
  %98 = ptrtoint ptr %0 to i64
  %99 = and i64 %98, 1
  %.not85 = icmp eq i64 %99, 0
  br i1 %.not85, label %100, label %lean_dec.exit40

100:                                              ; preds = %lean_inc.exit32
  %101 = load i32, ptr %0, align 4, !tbaa !8
  %102 = icmp sgt i32 %101, 1
  br i1 %102, label %103, label %105, !prof !11

103:                                              ; preds = %100
  %104 = add nsw i32 %101, -1
  store i32 %104, ptr %0, align 4, !tbaa !8
  br label %lean_dec.exit40

105:                                              ; preds = %100
  %.not.i51 = icmp eq i32 %101, 0
  br i1 %.not.i51, label %lean_dec.exit40, label %106

106:                                              ; preds = %105
  tail call void @lean_dec_ref_cold(ptr noundef nonnull %0) #4
  br label %lean_dec.exit40

lean_dec.exit40:                                  ; preds = %106, %105, %103, %lean_inc.exit32
  %107 = getelementptr inbounds nuw i8, ptr %89, i64 40
  %108 = load ptr, ptr %107, align 8, !tbaa !4
  %109 = ptrtoint ptr %108 to i64
  %110 = and i64 %109, 1
  %.not86 = icmp eq i64 %110, 0
  br i1 %.not86, label %111, label %lean_inc.exit

111:                                              ; preds = %lean_dec.exit40
  %.val.i75 = load i32, ptr %108, align 4, !tbaa !8
  %112 = icmp sgt i32 %.val.i75, 0
  br i1 %112, label %113, label %115, !prof !11

113:                                              ; preds = %111
  %114 = add nuw i32 %.val.i75, 1
  store i32 %114, ptr %108, align 4, !tbaa !8
  br label %lean_inc.exit

115:                                              ; preds = %111
  %.not.i76 = icmp eq i32 %.val.i75, 0
  br i1 %.not.i76, label %lean_inc.exit, label %116

116:                                              ; preds = %115
  tail call void @lean_inc_ref_cold(ptr noundef nonnull %108) #4
  br label %lean_inc.exit

lean_inc.exit:                                    ; preds = %116, %115, %113, %lean_dec.exit40
  br i1 %.not84, label %117, label %lean_dec.exit39

117:                                              ; preds = %lean_inc.exit
  %118 = load i32, ptr %89, align 4, !tbaa !8
  %119 = icmp sgt i32 %118, 1
  br i1 %119, label %120, label %122, !prof !11

120:                                              ; preds = %117
  %121 = add nsw i32 %118, -1
  store i32 %121, ptr %89, align 4, !tbaa !8
  br label %lean_dec.exit39

122:                                              ; preds = %117
  %.not.i53 = icmp eq i32 %118, 0
  br i1 %.not.i53, label %lean_dec.exit39, label %123

123:                                              ; preds = %122
  tail call void @lean_dec_ref_cold(ptr noundef nonnull %89) #4
  br label %lean_dec.exit39

lean_dec.exit39:                                  ; preds = %123, %122, %120, %lean_inc.exit
  %124 = tail call ptr @l_Lake_nameToStaticLib(ptr noundef %108) #4
  br i1 %.not86, label %125, label %lean_dec.exit38

125:                                              ; preds = %lean_dec.exit39
  %126 = load i32, ptr %108, align 4, !tbaa !8
  %127 = icmp sgt i32 %126, 1
  br i1 %127, label %128, label %130, !prof !11

128:                                              ; preds = %125
  %129 = add nsw i32 %126, -1
  store i32 %129, ptr %108, align 4, !tbaa !8
  br label %lean_dec.exit38

130:                                              ; preds = %125
  %.not.i55 = icmp eq i32 %126, 0
  br i1 %.not.i55, label %lean_dec.exit38, label %131

131:                                              ; preds = %130
  tail call void @lean_dec_ref_cold(ptr noundef nonnull %108) #4
  br label %lean_dec.exit38

lean_dec.exit38:                                  ; preds = %131, %130, %128, %lean_dec.exit39
  %132 = tail call ptr @l_Lake_joinRelative(ptr noundef %78, ptr noundef %124) #4
  %133 = ptrtoint ptr %124 to i64
  %134 = and i64 %133, 1
  %.not87 = icmp eq i64 %134, 0
  br i1 %.not87, label %135, label %lean_dec.exit

135:                                              ; preds = %lean_dec.exit38
  %136 = load i32, ptr %124, align 4, !tbaa !8
  %137 = icmp sgt i32 %136, 1
  br i1 %137, label %138, label %140, !prof !11

138:                                              ; preds = %135
  %139 = add nsw i32 %136, -1
  store i32 %139, ptr %124, align 4, !tbaa !8
  br label %lean_dec.exit

140:                                              ; preds = %135
  %.not.i57 = icmp eq i32 %136, 0
  br i1 %.not.i57, label %lean_dec.exit, label %141

141:                                              ; preds = %140
  tail call void @lean_dec_ref_cold(ptr noundef nonnull %124) #4
  br label %lean_dec.exit

lean_dec.exit:                                    ; preds = %141, %140, %138, %lean_dec.exit38
  ret ptr %132
}